target datalayout = "e-m:e-p270:32:32-p271:32:32-p272:64:64-i64:64-i128:128-f80:128-n8:16:32:64-S128"
target triple = "x86_64-unknown-linux-gnu"

%class.b2World = type <{ %class.b2BlockAllocator, %class.b2StackAllocator, %class.b2ContactManager, ptr, ptr, i32, i32, %struct.b2Vec2, i8, [7 x i8], ptr, ptr, float, i8, i8, i8, i8, i8, i8, i8, i8, %struct.b2Profile, [4 x i8] }>
%class.b2BlockAllocator = type { ptr, i32, i32, [14 x ptr] }
%class.b2StackAllocator = type <{ [102400 x i8], i32, i32, i32, [4 x i8], [32 x %struct.b2StackEntry], i32, [4 x i8] }>
%struct.b2StackEntry = type { ptr, i32, i8 }
%class.b2ContactManager = type { %class.b2BroadPhase, ptr, i32, ptr, ptr, ptr }
%class.b2BroadPhase = type <{ %class.b2DynamicTree, i32, [4 x i8], ptr, i32, i32, ptr, i32, i32, i32, [4 x i8] }>
%class.b2DynamicTree = type { i32, ptr, i32, i32, i32, i32 }
%struct.b2Vec2 = type { float, float }
%struct.b2Profile = type { float, float, float, float, float, float, float, float }
%class.b2Body = type { i32, i16, i32, %struct.b2Transform, %struct.b2Sweep, %struct.b2Vec2, float, %struct.b2Vec2, float, ptr, ptr, ptr, ptr, i32, ptr, ptr, float, float, float, float, float, float, float, float, %struct.b2BodyUserData }
%struct.b2Transform = type { %struct.b2Vec2, %struct.b2Rot }
%struct.b2Rot = type { float, float }
%struct.b2Sweep = type { %struct.b2Vec2, %struct.b2Vec2, %struct.b2Vec2, float, float, float }
%struct.b2BodyUserData = type { i64 }
%struct.b2JointEdge = type { ptr, ptr, ptr, ptr }
%class.b2Joint = type { ptr, i32, ptr, ptr, %struct.b2JointEdge, %struct.b2JointEdge, ptr, ptr, i32, i8, i8, %struct.b2JointUserData }
%struct.b2JointUserData = type { i64 }

@.str = private unnamed_addr constant [15 x i8] c"box2d_dump.inl\00", align 1
@.str.1 = private unnamed_addr constant [23 x i8] c"b2Vec2 g(%.9g, %.9g);\0A\00", align 1
@.str.2 = private unnamed_addr constant [25 x i8] c"m_world->SetGravity(g);\0A\00", align 1
@.str.3 = private unnamed_addr constant [60 x i8] c"b2Body** bodies = (b2Body**)b2Alloc(%d * sizeof(b2Body*));\0A\00", align 1
@.str.4 = private unnamed_addr constant [63 x i8] c"b2Joint** joints = (b2Joint**)b2Alloc(%d * sizeof(b2Joint*));\0A\00", align 1
@.str.5 = private unnamed_addr constant [3 x i8] c"{\0A\00", align 1
@.str.6 = private unnamed_addr constant [3 x i8] c"}\0A\00", align 1
@.str.7 = private unnamed_addr constant [17 x i8] c"b2Free(joints);\0A\00", align 1
@.str.8 = private unnamed_addr constant [17 x i8] c"b2Free(bodies);\0A\00", align 1
@.str.9 = private unnamed_addr constant [19 x i8] c"joints = nullptr;\0A\00", align 1
@.str.10 = private unnamed_addr constant [19 x i8] c"bodies = nullptr;\0A\00", align 1

; Function Attrs: mustprogress uwtable
define void @_ZN7b2World4DumpEv(ptr noundef nonnull align 8 dereferenceable(103284) %this) #0 align 2 {
entry:
  %this.addr = alloca ptr, align 8
  %i = alloca i32, align 4
  %b = alloca ptr, align 8
  %j = alloca ptr, align 8
  %j12 = alloca ptr, align 8
  %j22 = alloca ptr, align 8
  store ptr %this, ptr %this.addr, align 8
  %this1 = load ptr, ptr %this.addr, align 8
  %m_locked = getelementptr inbounds %class.b2World, ptr %this1, i32 0, i32 14
  %0 = load i8, ptr %m_locked, align 1
  %tobool = trunc i8 %0 to i1
  br i1 %tobool, label %if.then, label %if.end

if.then:                                          ; preds = %entry
  br label %return

if.end:                                           ; preds = %entry
  call void @_Z10b2OpenDumpPKc(ptr noundef @.str)
  %m_gravity = getelementptr inbounds %class.b2World, ptr %this1, i32 0, i32 7
  %x = getelementptr inbounds %struct.b2Vec2, ptr %m_gravity, i32 0, i32 0
  %1 = load float, ptr %x, align 8
  %conv = fpext float %1 to double
  %m_gravity2 = getelementptr inbounds %class.b2World, ptr %this1, i32 0, i32 7
  %y = getelementptr inbounds %struct.b2Vec2, ptr %m_gravity2, i32 0, i32 1
  %2 = load float, ptr %y, align 4
  %conv3 = fpext float %2 to double
  call void (ptr, ...) @_Z6b2DumpPKcz(ptr noundef @.str.1, double noundef %conv, double noundef %conv3)
  call void (ptr, ...) @_Z6b2DumpPKcz(ptr noundef @.str.2)
  %m_bodyCount = getelementptr inbounds %class.b2World, ptr %this1, i32 0, i32 5
  %3 = load i32, ptr %m_bodyCount, align 8
  call void (ptr, ...) @_Z6b2DumpPKcz(ptr noundef @.str.3, i32 noundef %3)
  %m_jointCount = getelementptr inbounds %class.b2World, ptr %this1, i32 0, i32 6
  %4 = load i32, ptr %m_jointCount, align 4
  call void (ptr, ...) @_Z6b2DumpPKcz(ptr noundef @.str.4, i32 noundef %4)
  store i32 0, ptr %i, align 4
  %m_bodyList = getelementptr inbounds %class.b2World, ptr %this1, i32 0, i32 3
  %5 = load ptr, ptr %m_bodyList, align 8
  store ptr %5, ptr %b, align 8
  br label %for.cond

for.cond:                                         ; preds = %for.inc, %if.end
  %6 = load ptr, ptr %b, align 8
  %tobool4 = icmp ne ptr %6, null
  br i1 %tobool4, label %for.body, label %for.end

for.body:                                         ; preds = %for.cond
  %7 = load i32, ptr %i, align 4
  %8 = load ptr, ptr %b, align 8
  %m_islandIndex = getelementptr inbounds %class.b2Body, ptr %8, i32 0, i32 2
  store i32 %7, ptr %m_islandIndex, align 8
  %9 = load ptr, ptr %b, align 8
  call void @_ZN6b2Body4DumpEv(ptr noundef nonnull align 8 dereferenceable(184) %9)
  %10 = load i32, ptr %i, align 4
  %inc = add nsw i32 %10, 1
  store i32 %inc, ptr %i, align 4
  br label %for.inc

for.inc:                                          ; preds = %for.body
  %11 = load ptr, ptr %b, align 8
  %m_next = getelementptr inbounds %class.b2Body, ptr %11, i32 0, i32 11
  %12 = load ptr, ptr %m_next, align 8
  store ptr %12, ptr %b, align 8
  br label %for.cond, !llvm.loop !43

for.end:                                          ; preds = %for.cond
  store i32 0, ptr %i, align 4
  %m_jointList = getelementptr inbounds %class.b2World, ptr %this1, i32 0, i32 4
  %13 = load ptr, ptr %m_jointList, align 8
  store ptr %13, ptr %j, align 8
  br label %for.cond5

for.cond5:                                        ; preds = %for.inc9, %for.end
  %14 = load ptr, ptr %j, align 8
  %tobool6 = icmp ne ptr %14, null
  br i1 %tobool6, label %for.body7, label %for.end11

for.body7:                                        ; preds = %for.cond5
  %15 = load i32, ptr %i, align 4
  %16 = load ptr, ptr %j, align 8
  %m_index = getelementptr inbounds %class.b2Joint, ptr %16, i32 0, i32 8
  store i32 %15, ptr %m_index, align 8
  %17 = load i32, ptr %i, align 4
  %inc8 = add nsw i32 %17, 1
  store i32 %inc8, ptr %i, align 4
  br label %for.inc9

for.inc9:                                         ; preds = %for.body7
  %18 = load ptr, ptr %j, align 8
  %m_next10 = getelementptr inbounds %class.b2Joint, ptr %18, i32 0, i32 3
  %19 = load ptr, ptr %m_next10, align 8
  store ptr %19, ptr %j, align 8
  br label %for.cond5, !llvm.loop !44

for.end11:                                        ; preds = %for.cond5
  %m_jointList13 = getelementptr inbounds %class.b2World, ptr %this1, i32 0, i32 4
  %20 = load ptr, ptr %m_jointList13, align 8
  store ptr %20, ptr %j12, align 8
  br label %for.cond14

for.cond14:                                       ; preds = %for.inc19, %for.end11
  %21 = load ptr, ptr %j12, align 8
  %tobool15 = icmp ne ptr %21, null
  br i1 %tobool15, label %for.body16, label %for.end21

for.body16:                                       ; preds = %for.cond14
  %22 = load ptr, ptr %j12, align 8
  %m_type = getelementptr inbounds %class.b2Joint, ptr %22, i32 0, i32 1
  %23 = load i32, ptr %m_type, align 8
  %cmp = icmp eq i32 %23, 6
  br i1 %cmp, label %if.then17, label %if.end18

if.then17:                                        ; preds = %for.body16
  br label %for.inc19

if.end18:                                         ; preds = %for.body16
  call void (ptr, ...) @_Z6b2DumpPKcz(ptr noundef @.str.5)
  %24 = load ptr, ptr %j12, align 8
  %vtable = load ptr, ptr %24, align 8
  %vfn = getelementptr inbounds ptr, ptr %vtable, i64 4
  %25 = load ptr, ptr %vfn, align 8
  call void %25(ptr noundef nonnull align 8 dereferenceable(128) %24)
  call void (ptr, ...) @_Z6b2DumpPKcz(ptr noundef @.str.6)
  br label %for.inc19

for.inc19:                                        ; preds = %if.end18, %if.then17
  %26 = load ptr, ptr %j12, align 8
  %m_next20 = getelementptr inbounds %class.b2Joint, ptr %26, i32 0, i32 3
  %27 = load ptr, ptr %m_next20, align 8
  store ptr %27, ptr %j12, align 8
  br label %for.cond14, !llvm.loop !45

for.end21:                                        ; preds = %for.cond14
  %m_jointList23 = getelementptr inbounds %class.b2World, ptr %this1, i32 0, i32 4
  %28 = load ptr, ptr %m_jointList23, align 8
  store ptr %28, ptr %j22, align 8
  br label %for.cond24

for.cond24:                                       ; preds = %for.inc33, %for.end21
  %29 = load ptr, ptr %j22, align 8
  %tobool25 = icmp ne ptr %29, null
  br i1 %tobool25, label %for.body26, label %for.end35

for.body26:                                       ; preds = %for.cond24
  %30 = load ptr, ptr %j22, align 8
  %m_type27 = getelementptr inbounds %class.b2Joint, ptr %30, i32 0, i32 1
  %31 = load i32, ptr %m_type27, align 8
  %cmp28 = icmp ne i32 %31, 6
  br i1 %cmp28, label %if.then29, label %if.end30

if.then29:                                        ; preds = %for.body26
  br label %for.inc33

if.end30:                                         ; preds = %for.body26
  call void (ptr, ...) @_Z6b2DumpPKcz(ptr noundef @.str.5)
  %32 = load ptr, ptr %j22, align 8
  %vtable31 = load ptr, ptr %32, align 8
  %vfn32 = getelementptr inbounds ptr, ptr %vtable31, i64 4
  %33 = load ptr, ptr %vfn32, align 8
  call void %33(ptr noundef nonnull align 8 dereferenceable(128) %32)
  call void (ptr, ...) @_Z6b2DumpPKcz(ptr noundef @.str.6)
  br label %for.inc33

for.inc33:                                        ; preds = %if.end30, %if.then29
  %34 = load ptr, ptr %j22, align 8
  %m_next34 = getelementptr inbounds %class.b2Joint, ptr %34, i32 0, i32 3
  %35 = load ptr, ptr %m_next34, align 8
  store ptr %35, ptr %j22, align 8
  br label %for.cond24, !llvm.loop !46

for.end35:                                        ; preds = %for.cond24
  call void (ptr, ...) @_Z6b2DumpPKcz(ptr noundef @.str.7)
  call void (ptr, ...) @_Z6b2DumpPKcz(ptr noundef @.str.8)
  call void (ptr, ...) @_Z6b2DumpPKcz(ptr noundef @.str.9)
  call void (ptr, ...) @_Z6b2DumpPKcz(ptr noundef @.str.10)
  call void @_Z11b2CloseDumpv()
  br label %return

return:                                           ; preds = %for.end35, %if.then
  ret void
}