; Function Attrs: mustprogress uwtable
define void @_ZN7b2World4DumpEv(ptr noundef nonnull readonly align 8 captures(none) dereferenceable(103284) %this) local_unnamed_addr #0 align 2 {
entry:
  %m_locked = getelementptr inbounds nuw i8, ptr %this, i64 103245
  %0 = load i8, ptr %m_locked, align 1
  %tobool = trunc i8 %0 to i1
  br i1 %tobool, label %return, label %if.end

if.end:                                           ; preds = %entry
  tail call void @_Z10b2OpenDumpPKc(ptr noundef nonnull @.str)
  %m_gravity = getelementptr inbounds nuw i8, ptr %this, i64 103208
  %1 = load float, ptr %m_gravity, align 8
  %conv = fpext float %1 to double
  %y = getelementptr inbounds nuw i8, ptr %this, i64 103212
  %2 = load float, ptr %y, align 4
  %conv3 = fpext float %2 to double
  tail call void (ptr, ...) @_Z6b2DumpPKcz(ptr noundef nonnull @.str.1, double noundef %conv, double noundef %conv3)
  tail call void (ptr, ...) @_Z6b2DumpPKcz(ptr noundef nonnull @.str.2)
  %m_bodyCount = getelementptr inbounds nuw i8, ptr %this, i64 103200
  %3 = load i32, ptr %m_bodyCount, align 8
  tail call void (ptr, ...) @_Z6b2DumpPKcz(ptr noundef nonnull @.str.3, i32 noundef %3)
  %m_jointCount = getelementptr inbounds nuw i8, ptr %this, i64 103204
  %4 = load i32, ptr %m_jointCount, align 4
  tail call void (ptr, ...) @_Z6b2DumpPKcz(ptr noundef nonnull @.str.4, i32 noundef %4)
  %m_bodyList = getelementptr inbounds nuw i8, ptr %this, i64 103184
  %b.015 = load ptr, ptr %m_bodyList, align 8
  %tobool4.not16 = icmp eq ptr %b.015, null
  br i1 %tobool4.not16, label %for.end, label %for.body

for.body:                                         ; preds = %if.end, %for.body
  %b.018 = phi ptr [ %b.0, %for.body ], [ %b.015, %if.end ]
  %i.017 = phi i32 [ %inc, %for.body ], [ 0, %if.end ]
  %m_islandIndex = getelementptr inbounds nuw i8, ptr %b.018, i64 8
  store i32 %i.017, ptr %m_islandIndex, align 8
  tail call void @_ZN6b2Body4DumpEv(ptr noundef nonnull align 8 dereferenceable(184) %b.018)
  %inc = add nuw nsw i32 %i.017, 1
  %m_next = getelementptr inbounds nuw i8, ptr %b.018, i64 104
  %b.0 = load ptr, ptr %m_next, align 8
  %tobool4.not = icmp eq ptr %b.0, null
  br i1 %tobool4.not, label %for.end, label %for.body, !llvm.loop !42

for.end:                                          ; preds = %for.body, %if.end
  %m_jointList = getelementptr inbounds nuw i8, ptr %this, i64 103192
  %j.019 = load ptr, ptr %m_jointList, align 8
  %tobool6.not20 = icmp eq ptr %j.019, null
  br i1 %tobool6.not20, label %for.end35, label %for.body7

for.cond14.preheader:                             ; preds = %for.body7
  %j12.023.pre = load ptr, ptr %m_jointList, align 8
  %tobool15.not24 = icmp eq ptr %j12.023.pre, null
  br i1 %tobool15.not24, label %for.end35, label %for.body16

for.body7:                                        ; preds = %for.end, %for.body7
  %j.022 = phi ptr [ %j.0, %for.body7 ], [ %j.019, %for.end ]
  %i.121 = phi i32 [ %inc8, %for.body7 ], [ 0, %for.end ]
  %m_index = getelementptr inbounds nuw i8, ptr %j.022, i64 112
  store i32 %i.121, ptr %m_index, align 8
  %inc8 = add nuw nsw i32 %i.121, 1
  %m_next10 = getelementptr inbounds nuw i8, ptr %j.022, i64 24
  %j.0 = load ptr, ptr %m_next10, align 8
  %tobool6.not = icmp eq ptr %j.0, null
  br i1 %tobool6.not, label %for.cond14.preheader, label %for.body7, !llvm.loop !43

for.cond24.preheader:                             ; preds = %for.inc19
  %j22.026.pre = load ptr, ptr %m_jointList, align 8
  %tobool25.not27 = icmp eq ptr %j22.026.pre, null
  br i1 %tobool25.not27, label %for.end35, label %for.body26

for.body16:                                       ; preds = %for.cond14.preheader, %for.inc19
  %j12.025 = phi ptr [ %j12.0, %for.inc19 ], [ %j12.023.pre, %for.cond14.preheader ]
  %m_type = getelementptr inbounds nuw i8, ptr %j12.025, i64 8
  %5 = load i32, ptr %m_type, align 8
  %cmp = icmp eq i32 %5, 6
  br i1 %cmp, label %for.inc19, label %if.end18

if.end18:                                         ; preds = %for.body16
  tail call void (ptr, ...) @_Z6b2DumpPKcz(ptr noundef nonnull @.str.5)
  %vtable = load ptr, ptr %j12.025, align 8
  %vfn = getelementptr inbounds nuw i8, ptr %vtable, i64 32
  %6 = load ptr, ptr %vfn, align 8
  tail call void %6(ptr noundef nonnull align 8 dereferenceable(128) %j12.025)
  tail call void (ptr, ...) @_Z6b2DumpPKcz(ptr noundef nonnull @.str.6)
  br label %for.inc19

for.inc19:                                        ; preds = %for.body16, %if.end18
  %m_next20 = getelementptr inbounds nuw i8, ptr %j12.025, i64 24
  %j12.0 = load ptr, ptr %m_next20, align 8
  %tobool15.not = icmp eq ptr %j12.0, null
  br i1 %tobool15.not, label %for.cond24.preheader, label %for.body16, !llvm.loop !44

for.body26:                                       ; preds = %for.cond24.preheader, %for.inc33
  %j22.028 = phi ptr [ %j22.0, %for.inc33 ], [ %j22.026.pre, %for.cond24.preheader ]
  %m_type27 = getelementptr inbounds nuw i8, ptr %j22.028, i64 8
  %7 = load i32, ptr %m_type27, align 8
  %cmp28.not = icmp eq i32 %7, 6
  br i1 %cmp28.not, label %if.end30, label %for.inc33

if.end30:                                         ; preds = %for.body26
  tail call void (ptr, ...) @_Z6b2DumpPKcz(ptr noundef nonnull @.str.5)
  %vtable31 = load ptr, ptr %j22.028, align 8
  %vfn32 = getelementptr inbounds nuw i8, ptr %vtable31, i64 32
  %8 = load ptr, ptr %vfn32, align 8
  tail call void %8(ptr noundef nonnull align 8 dereferenceable(128) %j22.028)
  tail call void (ptr, ...) @_Z6b2DumpPKcz(ptr noundef nonnull @.str.6)
  br label %for.inc33

for.inc33:                                        ; preds = %for.body26, %if.end30
  %m_next34 = getelementptr inbounds nuw i8, ptr %j22.028, i64 24
  %j22.0 = load ptr, ptr %m_next34, align 8
  %tobool25.not = icmp eq ptr %j22.0, null
  br i1 %tobool25.not, label %for.end35, label %for.body26, !llvm.loop !45

for.end35:                                        ; preds = %for.inc33, %for.end, %for.cond14.preheader, %for.cond24.preheader
  tail call void (ptr, ...) @_Z6b2DumpPKcz(ptr noundef nonnull @.str.7)
  tail call void (ptr, ...) @_Z6b2DumpPKcz(ptr noundef nonnull @.str.8)
  tail call void (ptr, ...) @_Z6b2DumpPKcz(ptr noundef nonnull @.str.9)
  tail call void (ptr, ...) @_Z6b2DumpPKcz(ptr noundef nonnull @.str.10)
  tail call void @_Z11b2CloseDumpv()
  br label %return

return:                                           ; preds = %entry, %for.end35
  ret void
}